#include <math.h>
#include <stdio.h>
#include <stdlib.h>
#include <string.h>

int main()
{
int a[20000];
int n,i,j,p;
scanf("%d",&n);
for (i=1;i<=n;i++)
{
scanf("%d",&a[i]);
p=0;
for (j=1;j<i;j++)
{
if (a[j]==a[i])
{
p=1;
}
}
if (p==0 & i==1)
{
printf("%d",a[i]);
}
if (p==0 & i!=1)
{
printf(" %d",a[i]);
}
}
return 0;
}
